target datalayout = "e-m:e-p270:32:32-p271:32:32-p272:64:64-i64:64-i128:128-f80:128-n8:16:32:64-S128"
target triple = "x86_64-pc-linux-gnu"

%struct._GList = type { ptr, ptr, ptr }
%struct._iface_toolbar = type { ptr, ptr, ptr, ptr }

@_toolbars = internal global ptr null, align 8

; Function Attrs: null_pointer_is_valid sspstrong uwtable
define hidden zeroext i1 @extcap_has_toolbar(ptr noundef %0) #0 {
  %2 = alloca i1, align 1
  %3 = alloca ptr, align 8
  %4 = alloca ptr, align 8
  %5 = alloca ptr, align 8
  %6 = alloca i32, align 4
  %7 = alloca ptr, align 8
  store ptr %0, ptr %3, align 8
  %8 = call zeroext i1 @iface_toolbar_use()
  br i1 %8, label %10, label %9

9:                                                ; preds = %1
  store i1 false, ptr %2, align 1
  br label %43

10:                                               ; preds = %1
  call void @extcap_ensure_all_interfaces_loaded()
  call void @llvm.lifetime.start.p0(i64 8, ptr %4) #9
  %11 = load ptr, ptr @_toolbars, align 8
  %12 = call ptr @g_hash_table_get_values(ptr noundef %11)
  store ptr %12, ptr %4, align 8
  call void @llvm.lifetime.start.p0(i64 8, ptr %5) #9
  %13 = load ptr, ptr %4, align 8
  store ptr %13, ptr %5, align 8
  br label %14

14:                                               ; preds = %34, %10
  %15 = load ptr, ptr %5, align 8
  %16 = icmp ne ptr %15, null
  br i1 %16, label %18, label %17

17:                                               ; preds = %14
  store i32 2, ptr %6, align 4
  br label %38

18:                                               ; preds = %14
  call void @llvm.lifetime.start.p0(i64 8, ptr %7) #9
  %19 = load ptr, ptr %5, align 8
  %20 = getelementptr inbounds nuw %struct._GList, ptr %19, i32 0, i32 0
  %21 = load ptr, ptr %20, align 8
  store ptr %21, ptr %7, align 8
  %22 = load ptr, ptr %7, align 8
  %23 = getelementptr inbounds nuw %struct._iface_toolbar, ptr %22, i32 0, i32 2
  %24 = load ptr, ptr %23, align 8
  %25 = load ptr, ptr %3, align 8
  %26 = call ptr @g_list_find_custom(ptr noundef %24, ptr noundef %25, ptr noundef @g_strcmp0)
  %27 = icmp ne ptr %26, null
  br i1 %27, label %28, label %30

28:                                               ; preds = %18
  %29 = load ptr, ptr %4, align 8
  call void @g_list_free(ptr noundef %29)
  store i1 true, ptr %2, align 1
  store i32 1, ptr %6, align 4
  br label %31

30:                                               ; preds = %18
  store i32 0, ptr %6, align 4
  br label %31

31:                                               ; preds = %30, %28
  call void @llvm.lifetime.end.p0(i64 8, ptr %7) #9
  %32 = load i32, ptr %6, align 4
  switch i32 %32, label %38 [
    i32 0, label %33
  ]

33:                                               ; preds = %31
  br label %34

34:                                               ; preds = %33
  %35 = load ptr, ptr %5, align 8
  %36 = getelementptr inbounds nuw %struct._GList, ptr %35, i32 0, i32 1
  %37 = load ptr, ptr %36, align 8
  store ptr %37, ptr %5, align 8
  br label %14, !llvm.loop !23

38:                                               ; preds = %31, %17
  call void @llvm.lifetime.end.p0(i64 8, ptr %5) #9
  %39 = load i32, ptr %6, align 4
  switch i32 %39, label %42 [
    i32 2, label %40
  ]

40:                                               ; preds = %38
  %41 = load ptr, ptr %4, align 8
  call void @g_list_free(ptr noundef %41)
  store i1 false, ptr %2, align 1
  store i32 1, ptr %6, align 4
  br label %42

42:                                               ; preds = %40, %38
  call void @llvm.lifetime.end.p0(i64 8, ptr %4) #9
  br label %43

43:                                               ; preds = %42, %9
  %44 = load i1, ptr %2, align 1
  ret i1 %44
}