; Function Attrs: null_pointer_is_valid sspstrong uwtable
define hidden noundef zeroext i1 @extcap_has_toolbar(ptr noundef %0) local_unnamed_addr #0 {
  %2 = tail call zeroext i1 @iface_toolbar_use()
  br i1 %2, label %3, label %12

3:                                                ; preds = %1
  tail call fastcc void @extcap_ensure_all_interfaces_loaded()
  %4 = load ptr, ptr @_toolbars, align 8
  %5 = tail call ptr @g_hash_table_get_values(ptr noundef %4)
  %.not.not17 = icmp eq ptr %5, null
  br i1 %.not.not17, label %.sink.split, label %.lr.ph

.lr.ph:                                           ; preds = %3, %.critedge
  %.01318 = phi ptr [ %11, %.critedge ], [ %5, %3 ]
  %6 = load ptr, ptr %.01318, align 8
  %7 = getelementptr inbounds nuw i8, ptr %6, i64 16
  %8 = load ptr, ptr %7, align 8
  %9 = tail call ptr @g_list_find_custom(ptr noundef %8, ptr noundef %0, ptr noundef nonnull @g_strcmp0)
  %.not14.not = icmp ne ptr %9, null
  br i1 %.not14.not, label %.sink.split, label %.critedge

.critedge:                                        ; preds = %.lr.ph
  %10 = getelementptr inbounds nuw i8, ptr %.01318, i64 8
  %11 = load ptr, ptr %10, align 8
  %.not.not = icmp eq ptr %11, null
  br i1 %.not.not, label %.sink.split, label %.lr.ph, !llvm.loop !32

.sink.split:                                      ; preds = %.critedge, %.lr.ph, %3
  %.0.ph = phi i1 [ false, %3 ], [ %.not14.not, %.lr.ph ], [ %.not14.not, %.critedge ]
  tail call void @g_list_free(ptr noundef %5)
  br label %12

12:                                               ; preds = %.sink.split, %1
  %.0 = phi i1 [ false, %1 ], [ %.0.ph, %.sink.split ]
  ret i1 %.0
}